target datalayout = "e-m:e-p270:32:32-p271:32:32-p272:64:64-i64:64-i128:128-f80:128-n8:16:32:64-S128"
target triple = "x86_64-pc-linux-gnu"

; Function Attrs: nounwind uwtable
define void @ff_acelp_update_past_gain(ptr noundef %0, i32 noundef %1, i32 noundef %2, i32 noundef %3) #0 {
  %5 = alloca ptr, align 8
  %6 = alloca i32, align 4
  %7 = alloca i32, align 4
  %8 = alloca i32, align 4
  %9 = alloca i32, align 4
  %10 = alloca i32, align 4
  store ptr %0, ptr %5, align 8, !tbaa !4
  store i32 %1, ptr %6, align 4, !tbaa !9
  store i32 %2, ptr %7, align 4, !tbaa !9
  store i32 %3, ptr %8, align 4, !tbaa !9
  call void @llvm.lifetime.start.p0(i64 4, ptr %9) #7
  call void @llvm.lifetime.start.p0(i64 4, ptr %10) #7
  %11 = load ptr, ptr %5, align 8, !tbaa !4
  %12 = load i32, ptr %7, align 4, !tbaa !9
  %13 = shl i32 1, %12
  %14 = sub nsw i32 %13, 1
  %15 = sext i32 %14 to i64
  %16 = getelementptr inbounds i16, ptr %11, i64 %15
  %17 = load i16, ptr %16, align 2, !tbaa !11
  %18 = sext i16 %17 to i32
  store i32 %18, ptr %10, align 4, !tbaa !9
  %19 = load i32, ptr %7, align 4, !tbaa !9
  %20 = shl i32 1, %19
  %21 = sub nsw i32 %20, 1
  store i32 %21, ptr %9, align 4, !tbaa !9
  br label %22

22:                                               ; preds = %45, %4
  %23 = load i32, ptr %9, align 4, !tbaa !9
  %24 = icmp sgt i32 %23, 0
  br i1 %24, label %25, label %48

25:                                               ; preds = %22
  %26 = load ptr, ptr %5, align 8, !tbaa !4
  %27 = load i32, ptr %9, align 4, !tbaa !9
  %28 = sub nsw i32 %27, 1
  %29 = sext i32 %28 to i64
  %30 = getelementptr inbounds i16, ptr %26, i64 %29
  %31 = load i16, ptr %30, align 2, !tbaa !11
  %32 = sext i16 %31 to i32
  %33 = load i32, ptr %10, align 4, !tbaa !9
  %34 = add nsw i32 %33, %32
  store i32 %34, ptr %10, align 4, !tbaa !9
  %35 = load ptr, ptr %5, align 8, !tbaa !4
  %36 = load i32, ptr %9, align 4, !tbaa !9
  %37 = sub nsw i32 %36, 1
  %38 = sext i32 %37 to i64
  %39 = getelementptr inbounds i16, ptr %35, i64 %38
  %40 = load i16, ptr %39, align 2, !tbaa !11
  %41 = load ptr, ptr %5, align 8, !tbaa !4
  %42 = load i32, ptr %9, align 4, !tbaa !9
  %43 = sext i32 %42 to i64
  %44 = getelementptr inbounds i16, ptr %41, i64 %43
  store i16 %40, ptr %44, align 2, !tbaa !11
  br label %45

45:                                               ; preds = %25
  %46 = load i32, ptr %9, align 4, !tbaa !9
  %47 = add nsw i32 %46, -1
  store i32 %47, ptr %9, align 4, !tbaa !9
  br label %22, !llvm.loop !13

48:                                               ; preds = %22
  %49 = load i32, ptr %8, align 4, !tbaa !9
  %50 = icmp ne i32 %49, 0
  br i1 %50, label %51, label %67

51:                                               ; preds = %48
  %52 = load i32, ptr %10, align 4, !tbaa !9
  %53 = load i32, ptr %7, align 4, !tbaa !9
  %54 = ashr i32 %52, %53
  %55 = icmp sgt i32 %54, -10240
  br i1 %55, label %56, label %60

56:                                               ; preds = %51
  %57 = load i32, ptr %10, align 4, !tbaa !9
  %58 = load i32, ptr %7, align 4, !tbaa !9
  %59 = ashr i32 %57, %58
  br label %61

60:                                               ; preds = %51
  br label %61

61:                                               ; preds = %60, %56
  %62 = phi i32 [ %59, %56 ], [ -10240, %60 ]
  %63 = sub nsw i32 %62, 4096
  %64 = trunc i32 %63 to i16
  %65 = load ptr, ptr %5, align 8, !tbaa !4
  %66 = getelementptr inbounds i16, ptr %65, i64 0
  store i16 %64, ptr %66, align 2, !tbaa !11
  br label %77

67:                                               ; preds = %48
  %68 = load i32, ptr %6, align 4, !tbaa !9
  %69 = call i32 @ff_log2_q15(i32 noundef %68)
  %70 = ashr i32 %69, 2
  %71 = sub nsw i32 %70, 106496
  %72 = mul nsw i32 6165, %71
  %73 = ashr i32 %72, 13
  %74 = trunc i32 %73 to i16
  %75 = load ptr, ptr %5, align 8, !tbaa !4
  %76 = getelementptr inbounds i16, ptr %75, i64 0
  store i16 %74, ptr %76, align 2, !tbaa !11
  br label %77

77:                                               ; preds = %67, %61
  call void @llvm.lifetime.end.p0(i64 4, ptr %10) #7
  call void @llvm.lifetime.end.p0(i64 4, ptr %9) #7
  ret void
}