; Function Attrs: nounwind uwtable
define void @ff_acelp_update_past_gain(ptr noundef captures(none) %0, i32 noundef %1, i32 noundef %2, i32 noundef %3) local_unnamed_addr #0 {
  %notmask = shl nsw i32 -1, %2
  %5 = xor i32 %notmask, -1
  %6 = zext nneg i32 %5 to i64
  %7 = getelementptr inbounds nuw i16, ptr %0, i64 %6
  %8 = load i16, ptr %7, align 2, !tbaa !4
  %9 = sext i16 %8 to i32
  %.not22 = icmp eq i32 %2, 0
  br i1 %.not22, label %._crit_edge, label %.lr.ph

.lr.ph:                                           ; preds = %4, %.lr.ph
  %indvars.iv = phi i64 [ %indvars.iv.next, %.lr.ph ], [ %6, %4 ]
  %.021 = phi i32 [ %14, %.lr.ph ], [ %9, %4 ]
  %10 = getelementptr i16, ptr %0, i64 %indvars.iv
  %11 = getelementptr i8, ptr %10, i64 -2
  %12 = load i16, ptr %11, align 2, !tbaa !4
  %13 = sext i16 %12 to i32
  %14 = add nsw i32 %.021, %13
  store i16 %12, ptr %10, align 2, !tbaa !4
  %indvars.iv.next = add nsw i64 %indvars.iv, -1
  %15 = icmp samesign ugt i64 %indvars.iv, 1
  br i1 %15, label %.lr.ph, label %._crit_edge, !llvm.loop !8

._crit_edge:                                      ; preds = %.lr.ph, %4
  %.0.lcssa = phi i32 [ %9, %4 ], [ %14, %.lr.ph ]
  %.not = icmp eq i32 %3, 0
  br i1 %.not, label %20, label %16

16:                                               ; preds = %._crit_edge
  %17 = ashr i32 %.0.lcssa, %2
  %18 = tail call i32 @llvm.smax.i32(i32 %17, i32 -10240)
  %19 = add nsw i32 %18, -4096
  br label %26

20:                                               ; preds = %._crit_edge
  %21 = tail call i32 @ff_log2_q15(i32 noundef %1) #6
  %22 = lshr i32 %21, 2
  %23 = mul i32 %22, 6165
  %24 = add i32 %23, 417193984
  %25 = lshr i32 %24, 13
  br label %26

26:                                               ; preds = %20, %16
  %storemerge.in = phi i32 [ %25, %20 ], [ %19, %16 ]
  %storemerge = trunc i32 %storemerge.in to i16
  store i16 %storemerge, ptr %0, align 2, !tbaa !4
  ret void
}